; Function Attrs: nounwind uwtable
define void @Cba_BlastSubtract(ptr noundef %0, ptr noundef captures(none) %1, ptr noundef readonly captures(none) %2, i32 noundef %3) local_unnamed_addr #0 {
  %5 = icmp sgt i32 %3, 0
  br i1 %5, label %.lr.ph.preheader, label %._crit_edge

.lr.ph.preheader:                                 ; preds = %4
  %wide.trip.count = zext nneg i32 %3 to i64
  br label %.lr.ph

.lr.ph:                                           ; preds = %.lr.ph.preheader, %.lr.ph
  %indvars.iv = phi i64 [ 0, %.lr.ph.preheader ], [ %indvars.iv.next, %.lr.ph ]
  %.0910 = phi i32 [ 1, %.lr.ph.preheader ], [ %21, %.lr.ph ]
  %6 = getelementptr inbounds nuw i32, ptr %1, i64 %indvars.iv
  %7 = load i32, ptr %6, align 4
  %8 = getelementptr inbounds nuw i32, ptr %2, i64 %indvars.iv
  %9 = load i32, ptr %8, align 4
  %10 = xor i32 %9, 1
  %11 = tail call i32 @Gia_ManHashAnd(ptr noundef %0, i32 noundef %7, i32 noundef %10) #20
  %12 = xor i32 %7, 1
  %13 = tail call i32 @Gia_ManHashAnd(ptr noundef %0, i32 noundef %12, i32 noundef %9) #20
  %14 = tail call i32 @Gia_ManHashOr(ptr noundef %0, i32 noundef %11, i32 noundef %13) #20
  %15 = xor i32 %14, 1
  %16 = tail call i32 @Gia_ManHashAnd(ptr noundef %0, i32 noundef %.0910, i32 noundef %15) #20
  %17 = xor i32 %.0910, 1
  %18 = tail call i32 @Gia_ManHashAnd(ptr noundef %0, i32 noundef %17, i32 noundef %14) #20
  %19 = tail call i32 @Gia_ManHashOr(ptr noundef %0, i32 noundef %16, i32 noundef %18) #20
  %20 = xor i32 %19, 1
  store i32 %20, ptr %6, align 4
  %21 = tail call i32 @Gia_ManHashOr(ptr noundef %0, i32 noundef %11, i32 noundef %16) #20
  %indvars.iv.next = add nuw nsw i64 %indvars.iv, 1
  %exitcond.not = icmp eq i64 %indvars.iv.next, %wide.trip.count
  br i1 %exitcond.not, label %._crit_edge, label %.lr.ph, !llvm.loop !28

._crit_edge:                                      ; preds = %.lr.ph, %4
  ret void
}